target datalayout = "e-m:e-p270:32:32-p271:32:32-p272:64:64-i64:64-i128:128-f80:128-n8:16:32:64-S128"
target triple = "x86_64-pc-linux-gnu"

%struct.PaUtilZeroerTable = type { ptr, ptr, ptr, ptr, ptr }

@paZeroers = global %struct.PaUtilZeroerTable { ptr @ZeroU8, ptr @Zero8, ptr @Zero16, ptr @Zero24, ptr @Zero32 }, align 8

; Function Attrs: nounwind uwtable
define ptr @PaUtil_SelectZeroer(i64 noundef %0) #0 {
  %2 = alloca ptr, align 8
  %3 = alloca i64, align 8
  store i64 %0, ptr %3, align 8, !tbaa !3
  %4 = load i64, ptr %3, align 8, !tbaa !3
  %5 = and i64 %4, -2147483649
  switch i64 %5, label %18 [
    i64 1, label %6
    i64 2, label %8
    i64 4, label %10
    i64 8, label %12
    i64 16, label %14
    i64 32, label %16
  ]

6:                                                ; preds = %1
  %7 = load ptr, ptr getelementptr inbounds nuw (%struct.PaUtilZeroerTable, ptr @paZeroers, i32 0, i32 4), align 8, !tbaa !146
  store ptr %7, ptr %2, align 8
  br label %19

8:                                                ; preds = %1
  %9 = load ptr, ptr getelementptr inbounds nuw (%struct.PaUtilZeroerTable, ptr @paZeroers, i32 0, i32 4), align 8, !tbaa !146
  store ptr %9, ptr %2, align 8
  br label %19

10:                                               ; preds = %1
  %11 = load ptr, ptr getelementptr inbounds nuw (%struct.PaUtilZeroerTable, ptr @paZeroers, i32 0, i32 3), align 8, !tbaa !148
  store ptr %11, ptr %2, align 8
  br label %19

12:                                               ; preds = %1
  %13 = load ptr, ptr getelementptr inbounds nuw (%struct.PaUtilZeroerTable, ptr @paZeroers, i32 0, i32 2), align 8, !tbaa !149
  store ptr %13, ptr %2, align 8
  br label %19

14:                                               ; preds = %1
  %15 = load ptr, ptr getelementptr inbounds nuw (%struct.PaUtilZeroerTable, ptr @paZeroers, i32 0, i32 1), align 8, !tbaa !150
  store ptr %15, ptr %2, align 8
  br label %19

16:                                               ; preds = %1
  %17 = load ptr, ptr @paZeroers, align 8, !tbaa !151
  store ptr %17, ptr %2, align 8
  br label %19

18:                                               ; preds = %1
  store ptr null, ptr %2, align 8
  br label %19

19:                                               ; preds = %18, %16, %14, %12, %10, %8, %6
  %20 = load ptr, ptr %2, align 8
  ret ptr %20
}