; Function Attrs: mustprogress nofree norecurse nosync nounwind willreturn memory(read, argmem: none, inaccessiblemem: none) uwtable
define ptr @PaUtil_SelectZeroer(i64 noundef %0) local_unnamed_addr #1 {
  %2 = and i64 %0, -2147483649
  switch i64 %2, label %15 [
    i64 1, label %3
    i64 2, label %5
    i64 4, label %7
    i64 8, label %9
    i64 16, label %11
    i64 32, label %13
  ]

3:                                                ; preds = %1
  %4 = load ptr, ptr getelementptr inbounds nuw (i8, ptr @paZeroers, i64 32), align 8, !tbaa !128
  br label %15

5:                                                ; preds = %1
  %6 = load ptr, ptr getelementptr inbounds nuw (i8, ptr @paZeroers, i64 32), align 8, !tbaa !128
  br label %15

7:                                                ; preds = %1
  %8 = load ptr, ptr getelementptr inbounds nuw (i8, ptr @paZeroers, i64 24), align 8, !tbaa !130
  br label %15

9:                                                ; preds = %1
  %10 = load ptr, ptr getelementptr inbounds nuw (i8, ptr @paZeroers, i64 16), align 8, !tbaa !131
  br label %15

11:                                               ; preds = %1
  %12 = load ptr, ptr getelementptr inbounds nuw (i8, ptr @paZeroers, i64 8), align 8, !tbaa !132
  br label %15

13:                                               ; preds = %1
  %14 = load ptr, ptr @paZeroers, align 8, !tbaa !133
  br label %15

15:                                               ; preds = %1, %13, %11, %9, %7, %5, %3
  %.0 = phi ptr [ %14, %13 ], [ %12, %11 ], [ %10, %9 ], [ %8, %7 ], [ %6, %5 ], [ %4, %3 ], [ null, %1 ]
  ret ptr %.0
}